; ModuleID = 'bench/curl/original/warnless.ll'
source_filename = "bench/curl/original/warnless.ll"
target datalayout = "e-m:e-p270:32:32-p271:32:32-p272:64:64-i64:64-i128:128-f80:128-n8:16:32:64-S128"
target triple = "x86_64-pc-linux-gnu"

; Function Attrs: mustprogress nofree norecurse nosync nounwind willreturn memory(none) uwtable
define dso_local noundef zeroext i16 @curlx_ultous(i64 noundef %0) local_unnamed_addr #0 {
  %2 = trunc i64 %0 to i16
  ret i16 %2
}

; Function Attrs: mustprogress nofree norecurse nosync nounwind willreturn memory(none) uwtable
define dso_local noundef zeroext i8 @curlx_ultouc(i64 noundef %0) local_unnamed_addr #0 {
  %2 = trunc i64 %0 to i8
  ret i8 %2
}

; Function Attrs: mustprogress nofree norecurse nosync nounwind willreturn memory(none) uwtable
define dso_local noundef range(i32 0, -2147483648) i32 @curlx_uztosi(i64 noundef %0) local_unnamed_addr #0 {
  %2 = trunc i64 %0 to i32
  %3 = and i32 %2, 2147483647
  ret i32 %3
}

; Function Attrs: mustprogress nofree norecurse nosync nounwind willreturn memory(none) uwtable
define dso_local noundef i64 @curlx_uztoul(i64 noundef returned %0) local_unnamed_addr #0 {
  ret i64 %0
}

; Function Attrs: mustprogress nofree norecurse nosync nounwind willreturn memory(none) uwtable
define dso_local noundef i32 @curlx_uztoui(i64 noundef %0) local_unnamed_addr #0 {
  %2 = trunc i64 %0 to i32
  ret i32 %2
}

; Function Attrs: mustprogress nofree norecurse nosync nounwind willreturn memory(none) uwtable
define dso_local noundef range(i32 0, -2147483648) i32 @curlx_sltosi(i64 noundef %0) local_unnamed_addr #0 {
  %2 = trunc i64 %0 to i32
  %3 = and i32 %2, 2147483647
  ret i32 %3
}

; Function Attrs: mustprogress nofree norecurse nosync nounwind willreturn memory(none) uwtable
define dso_local noundef i32 @curlx_sltoui(i64 noundef %0) local_unnamed_addr #0 {
  %2 = trunc i64 %0 to i32
  ret i32 %2
}

; Function Attrs: mustprogress nofree norecurse nosync nounwind willreturn memory(none) uwtable
define dso_local noundef zeroext i16 @curlx_sltous(i64 noundef %0) local_unnamed_addr #0 {
  %2 = trunc i64 %0 to i16
  ret i16 %2
}

; Function Attrs: mustprogress nofree norecurse nosync nounwind willreturn memory(none) uwtable
define dso_local noundef range(i64 0, -9223372036854775808) i64 @curlx_uztosz(i64 noundef %0) local_unnamed_addr #0 {
  %2 = and i64 %0, 9223372036854775807
  ret i64 %2
}

; Function Attrs: mustprogress nofree norecurse nosync nounwind willreturn memory(none) uwtable
define dso_local noundef i64 @curlx_sotouz(i64 noundef returned %0) local_unnamed_addr #0 {
  ret i64 %0
}

; Function Attrs: mustprogress nofree norecurse nosync nounwind willreturn memory(none) uwtable
define dso_local noundef range(i32 0, -2147483648) i32 @curlx_sztosi(i64 noundef %0) local_unnamed_addr #0 {
  %2 = trunc i64 %0 to i32
  %3 = and i32 %2, 2147483647
  ret i32 %3
}

; Function Attrs: mustprogress nofree norecurse nosync nounwind willreturn memory(none) uwtable
define dso_local noundef zeroext i16 @curlx_uitous(i32 noundef %0) local_unnamed_addr #0 {
  %2 = trunc i32 %0 to i16
  ret i16 %2
}

; Function Attrs: mustprogress nofree norecurse nosync nounwind willreturn memory(none) uwtable
define dso_local range(i64 -2147483648, 2147483648) i64 @curlx_sitouz(i32 noundef %0) local_unnamed_addr #0 {
  %2 = sext i32 %0 to i64
  ret i64 %2
}


!llvm.module.flags = !{!0, !1, !2, !3}

!0 = !{i32 1, !"wchar_size", i32 4}
!1 = !{i32 8, !"PIC Level", i32 2}
!2 = !{i32 7, !"PIE Level", i32 2}
!3 = !{i32 7, !"uwtable", i32 2}
